; Function Attrs: mustprogress uwtable
define noundef i64 @_ZNK3net10SpdyFramer22GetSynReplyMinimumSizeEv(ptr noundef nonnull readonly align 8 captures(none) dereferenceable(259) %0) local_unnamed_addr #0 align 2 {
  %2 = getelementptr inbounds nuw i8, ptr %0, i64 248
  %3 = load i32, ptr %2, align 8, !tbaa !82
  %4 = tail call noundef i64 @_ZN3net13SpdyConstants18GetFrameHeaderSizeENS_16SpdyMajorVersionE(i32 noundef %3)
  %5 = load i32, ptr %2, align 8, !tbaa !82
  %6 = icmp eq i32 %5, 1
  %7 = add i64 %4, 4
  %spec.select = select i1 %6, i64 %7, i64 %4
  ret i64 %spec.select
}